target datalayout = "e-m:e-p270:32:32-p271:32:32-p272:64:64-i64:64-i128:128-f80:128-n8:16:32:64-S128"
target triple = "x86_64-pc-linux-gnu"

%struct.prolog_state = type { ptr, i32, i32 }

; Function Attrs: nounwind uwtable
define internal i32 @common(ptr noundef %0, i32 noundef %1) #0 {
  %3 = alloca ptr, align 8
  %4 = alloca i32, align 4
  store ptr %0, ptr %3, align 8, !tbaa !4
  store i32 %1, ptr %4, align 4, !tbaa !12
  %5 = load ptr, ptr %3, align 8, !tbaa !4
  %6 = getelementptr inbounds nuw %struct.prolog_state, ptr %5, i32 0, i32 0
  store ptr @error, ptr %6, align 8, !tbaa !9
  ret i32 -1
}

; Function Attrs: nounwind uwtable
define internal i32 @element6(ptr noundef %0, i32 noundef %1, ptr noundef %2, ptr noundef %3, ptr noundef %4) #0 {
  %6 = alloca i32, align 4
  %7 = alloca ptr, align 8
  %8 = alloca i32, align 4
  %9 = alloca ptr, align 8
  %10 = alloca ptr, align 8
  %11 = alloca ptr, align 8
  store ptr %0, ptr %7, align 8, !tbaa !4
  store i32 %1, ptr %8, align 4, !tbaa !12
  store ptr %2, ptr %9, align 8, !tbaa !13
  store ptr %3, ptr %10, align 8, !tbaa !13
  store ptr %4, ptr %11, align 8, !tbaa !15
  %12 = load i32, ptr %8, align 4, !tbaa !12
  switch i32 %12, label %31 [
    i32 15, label %13
    i32 23, label %14
    i32 18, label %19
    i32 41, label %19
    i32 30, label %22
    i32 31, label %25
    i32 32, label %28
  ]

13:                                               ; preds = %5
  store i32 39, ptr %6, align 4
  br label %35

14:                                               ; preds = %5
  %15 = load ptr, ptr %7, align 8, !tbaa !4
  %16 = getelementptr inbounds nuw %struct.prolog_state, ptr %15, i32 0, i32 1
  %17 = load i32, ptr %16, align 8, !tbaa !23
  %18 = add i32 %17, 1
  store i32 %18, ptr %16, align 8, !tbaa !23
  store i32 44, ptr %6, align 4
  br label %35

19:                                               ; preds = %5, %5
  %20 = load ptr, ptr %7, align 8, !tbaa !4
  %21 = getelementptr inbounds nuw %struct.prolog_state, ptr %20, i32 0, i32 0
  store ptr @element7, ptr %21, align 8, !tbaa !9
  store i32 51, ptr %6, align 4
  br label %35

22:                                               ; preds = %5
  %23 = load ptr, ptr %7, align 8, !tbaa !4
  %24 = getelementptr inbounds nuw %struct.prolog_state, ptr %23, i32 0, i32 0
  store ptr @element7, ptr %24, align 8, !tbaa !9
  store i32 53, ptr %6, align 4
  br label %35

25:                                               ; preds = %5
  %26 = load ptr, ptr %7, align 8, !tbaa !4
  %27 = getelementptr inbounds nuw %struct.prolog_state, ptr %26, i32 0, i32 0
  store ptr @element7, ptr %27, align 8, !tbaa !9
  store i32 52, ptr %6, align 4
  br label %35

28:                                               ; preds = %5
  %29 = load ptr, ptr %7, align 8, !tbaa !4
  %30 = getelementptr inbounds nuw %struct.prolog_state, ptr %29, i32 0, i32 0
  store ptr @element7, ptr %30, align 8, !tbaa !9
  store i32 54, ptr %6, align 4
  br label %35

31:                                               ; preds = %5
  %32 = load ptr, ptr %7, align 8, !tbaa !4
  %33 = load i32, ptr %8, align 4, !tbaa !12
  %34 = call i32 @common(ptr noundef %32, i32 noundef %33)
  store i32 %34, ptr %6, align 4
  br label %35

35:                                               ; preds = %31, %28, %25, %22, %19, %14, %13
  %36 = load i32, ptr %6, align 4
  ret i32 %36
}