; Function Attrs: mustprogress nofree norecurse nosync nounwind willreturn memory(argmem: readwrite) uwtable
define internal range(i32 -1, 55) i32 @element6(ptr noundef captures(none) %0, i32 noundef %1, ptr readnone captures(none) %2, ptr readnone captures(none) %3, ptr readnone captures(none) %4) #3 {
  switch i32 %1, label %14 [
    i32 15, label %15
    i32 23, label %6
    i32 18, label %10
    i32 41, label %10
    i32 30, label %11
    i32 31, label %12
    i32 32, label %13
  ]

6:                                                ; preds = %5
  %7 = getelementptr inbounds nuw i8, ptr %0, i64 8
  %8 = load i32, ptr %7, align 8, !tbaa !18
  %9 = add i32 %8, 1
  store i32 %9, ptr %7, align 8, !tbaa !18
  br label %15

10:                                               ; preds = %5, %5
  store ptr @element7, ptr %0, align 8, !tbaa !4
  br label %15

11:                                               ; preds = %5
  store ptr @element7, ptr %0, align 8, !tbaa !4
  br label %15

12:                                               ; preds = %5
  store ptr @element7, ptr %0, align 8, !tbaa !4
  br label %15

13:                                               ; preds = %5
  store ptr @element7, ptr %0, align 8, !tbaa !4
  br label %15

14:                                               ; preds = %5
  store ptr @error, ptr %0, align 8, !tbaa !4
  br label %15

15:                                               ; preds = %5, %14, %13, %12, %11, %10, %6
  %.0 = phi i32 [ -1, %14 ], [ 54, %13 ], [ 52, %12 ], [ 53, %11 ], [ 51, %10 ], [ 44, %6 ], [ 39, %5 ]
  ret i32 %.0
}